target datalayout = "e-m:e-p270:32:32-p271:32:32-p272:64:64-i64:64-i128:128-f80:128-n8:16:32:64-S128"
target triple = "x86_64-pc-linux-gnu"

%"class.std::__shared_count" = type { ptr }
%"class.std::__shared_ptr.6" = type { ptr, %"class.std::__shared_count" }

@.str.16 = private unnamed_addr constant [17 x i8] c"Training failed\0A\00", align 1
@.str.17 = private unnamed_addr constant [17 x i8] c"train error: %f\0A\00", align 1
@.str.18 = private unnamed_addr constant [17 x i8] c"test error: %f\0A\0A\00", align 1

; Function Attrs: mustprogress nounwind uwtable
define linkonce_odr hidden noundef ptr @_ZNKSt12__shared_ptrIN2cv2ml9StatModelELN9__gnu_cxx12_Lock_policyE2EE3getEv(ptr noundef nonnull align 8 dereferenceable(16) %0) #6 comdat align 2 {
  %2 = alloca ptr, align 8
  store ptr %0, ptr %2, align 8, !tbaa !51
  %3 = load ptr, ptr %2, align 8
  %4 = getelementptr inbounds nuw %"class.std::__shared_ptr.6", ptr %3, i32 0, i32 0
  %5 = load ptr, ptr %4, align 8, !tbaa !80
  ret ptr %5
}

; Function Attrs: mustprogress nounwind uwtable
define linkonce_odr hidden noundef ptr @_ZNK2cv3PtrINS_2ml9StatModelEEptEv(ptr noundef nonnull align 8 dereferenceable(16) %0) #6 comdat align 2 {
  %2 = alloca ptr, align 8
  store ptr %0, ptr %2, align 8, !tbaa !49
  %3 = load ptr, ptr %2, align 8
  %4 = call noundef ptr @_ZNKSt12__shared_ptrIN2cv2ml9StatModelELN9__gnu_cxx12_Lock_policyE2EE3getEv(ptr noundef nonnull align 8 dereferenceable(16) %3) #3
  ret ptr %4
}

; Function Attrs: mustprogress uwtable
define internal void @_ZL20train_and_print_errsN2cv3PtrINS_2ml9StatModelEEERKNS0_INS1_9TrainDataEEE(ptr noundef %0, ptr noundef nonnull align 8 dereferenceable(16) %1) #7 {
  %3 = alloca ptr, align 8
  %4 = alloca ptr, align 8
  %5 = alloca i8, align 1
  store ptr %0, ptr %3, align 8, !tbaa !49
  store ptr %1, ptr %4, align 8, !tbaa !43
  call void @llvm.lifetime.start.p0(i64 1, ptr %5) #3
  %6 = call noundef ptr @_ZNK2cv3PtrINS_2ml9StatModelEEptEv(ptr noundef nonnull align 8 dereferenceable(16) %0) #3
  %7 = load ptr, ptr %4, align 8, !tbaa !43
  %8 = load ptr, ptr %6, align 8, !tbaa !14
  %9 = getelementptr inbounds ptr, ptr %8, i64 11
  %10 = load ptr, ptr %9, align 8
  %11 = call noundef zeroext i1 %10(ptr noundef nonnull align 8 dereferenceable(8) %6, ptr noundef nonnull align 8 dereferenceable(16) %7, i32 noundef 0)
  %12 = zext i1 %11 to i8
  store i8 %12, ptr %5, align 1, !tbaa !36
  %13 = load i8, ptr %5, align 1, !tbaa !36, !range !38, !noundef !39
  %14 = trunc i8 %13 to i1
  br i1 %14, label %17, label %15

15:                                               ; preds = %2
  %16 = call i32 (ptr, ...) @printf(ptr noundef @.str.16)
  br label %36

17:                                               ; preds = %2
  %18 = call noundef ptr @_ZNK2cv3PtrINS_2ml9StatModelEEptEv(ptr noundef nonnull align 8 dereferenceable(16) %0) #3
  %19 = load ptr, ptr %4, align 8, !tbaa !43
  %20 = call noundef nonnull align 8 dereferenceable(24) ptr @_ZN2cv7noArrayEv()
  %21 = load ptr, ptr %18, align 8, !tbaa !14
  %22 = getelementptr inbounds ptr, ptr %21, i64 13
  %23 = load ptr, ptr %22, align 8
  %24 = call noundef float %23(ptr noundef nonnull align 8 dereferenceable(8) %18, ptr noundef nonnull align 8 dereferenceable(16) %19, i1 noundef zeroext false, ptr noundef nonnull align 8 dereferenceable(24) %20)
  %25 = fpext float %24 to double
  %26 = call i32 (ptr, ...) @printf(ptr noundef @.str.17, double noundef %25)
  %27 = call noundef ptr @_ZNK2cv3PtrINS_2ml9StatModelEEptEv(ptr noundef nonnull align 8 dereferenceable(16) %0) #3
  %28 = load ptr, ptr %4, align 8, !tbaa !43
  %29 = call noundef nonnull align 8 dereferenceable(24) ptr @_ZN2cv7noArrayEv()
  %30 = load ptr, ptr %27, align 8, !tbaa !14
  %31 = getelementptr inbounds ptr, ptr %30, i64 13
  %32 = load ptr, ptr %31, align 8
  %33 = call noundef float %32(ptr noundef nonnull align 8 dereferenceable(8) %27, ptr noundef nonnull align 8 dereferenceable(16) %28, i1 noundef zeroext true, ptr noundef nonnull align 8 dereferenceable(24) %29)
  %34 = fpext float %33 to double
  %35 = call i32 (ptr, ...) @printf(ptr noundef @.str.18, double noundef %34)
  br label %36

36:                                               ; preds = %17, %15
  call void @llvm.lifetime.end.p0(i64 1, ptr %5) #3
  ret void
}