; Function Attrs: mustprogress norecurse uwtable
define internal fastcc void @_ZL20train_and_print_errsN2cv3PtrINS_2ml9StatModelEEERKNS0_INS1_9TrainDataEEE(ptr noundef nonnull readonly captures(none) %0, ptr noundef nonnull align 8 dereferenceable(16) %1) unnamed_addr #3 {
  %3 = load ptr, ptr %0, align 8, !tbaa !35
  %4 = load ptr, ptr %3, align 8, !tbaa !30
  %5 = getelementptr inbounds nuw i8, ptr %4, i64 88
  %6 = load ptr, ptr %5, align 8
  %7 = tail call noundef zeroext i1 %6(ptr noundef nonnull align 8 dereferenceable(8) %3, ptr noundef nonnull align 8 dereferenceable(16) %1, i32 noundef 0)
  br i1 %7, label %9, label %8

8:                                                ; preds = %2
  %puts = tail call i32 @puts(ptr nonnull dereferenceable(1) @str.3)
  br label %26

9:                                                ; preds = %2
  %10 = load ptr, ptr %0, align 8, !tbaa !35
  %11 = tail call noundef nonnull align 8 dereferenceable(24) ptr @_ZN2cv7noArrayEv()
  %12 = load ptr, ptr %10, align 8, !tbaa !30
  %13 = getelementptr inbounds nuw i8, ptr %12, i64 104
  %14 = load ptr, ptr %13, align 8
  %15 = tail call noundef float %14(ptr noundef nonnull align 8 dereferenceable(8) %10, ptr noundef nonnull align 8 dereferenceable(16) %1, i1 noundef zeroext false, ptr noundef nonnull align 8 dereferenceable(24) %11)
  %16 = fpext float %15 to double
  %17 = tail call i32 (ptr, ...) @printf(ptr noundef nonnull dereferenceable(1) @.str.17, double noundef %16)
  %18 = load ptr, ptr %0, align 8, !tbaa !35
  %19 = tail call noundef nonnull align 8 dereferenceable(24) ptr @_ZN2cv7noArrayEv()
  %20 = load ptr, ptr %18, align 8, !tbaa !30
  %21 = getelementptr inbounds nuw i8, ptr %20, i64 104
  %22 = load ptr, ptr %21, align 8
  %23 = tail call noundef float %22(ptr noundef nonnull align 8 dereferenceable(8) %18, ptr noundef nonnull align 8 dereferenceable(16) %1, i1 noundef zeroext true, ptr noundef nonnull align 8 dereferenceable(24) %19)
  %24 = fpext float %23 to double
  %25 = tail call i32 (ptr, ...) @printf(ptr noundef nonnull dereferenceable(1) @.str.18, double noundef %24)
  br label %26

26:                                               ; preds = %9, %8
  ret void
}